; Function Attrs: mustprogress nounwind uwtable
define void @_ZN9grpc_core23GrpcXdsTransportFactoryD2Ev(ptr noundef nonnull align 8 dereferenceable(72) %0) unnamed_addr #5 align 2 personality ptr @__gxx_personality_v0 {
  %2 = getelementptr inbounds nuw i8, ptr %0, i64 24
  %3 = load ptr, ptr %2, align 8, !tbaa !38
  invoke void @_Z24grpc_pollset_set_destroyP16grpc_pollset_set(ptr noundef %3)
          to label %4 unwind label %12

4:                                                ; preds = %1
  %5 = load ptr, ptr @_ZN9grpc_core18ShutdownInternallyE, align 8, !tbaa !116
  invoke void %5()
          to label %6 unwind label %12

6:                                                ; preds = %4
  %7 = getelementptr inbounds nuw i8, ptr %0, i64 40
  invoke void @_ZN4absl12lts_2024072218container_internal12raw_hash_setINS1_17FlatHashMapPolicyINSt7__cxx1112basic_stringIcSt11char_traitsIcESaIcEEEPN9grpc_core23GrpcXdsTransportFactory16GrpcXdsTransportEEENS1_10StringHashENS1_8StringEqESaISt4pairIKS9_SD_EEE15destructor_implEv(ptr noundef nonnull align 8 dereferenceable(32) %7)
          to label %_ZN4absl12lts_2024072218container_internal12raw_hash_setINS1_17FlatHashMapPolicyINSt7__cxx1112basic_stringIcSt11char_traitsIcESaIcEEEPN9grpc_core23GrpcXdsTransportFactory16GrpcXdsTransportEEENS1_10StringHashENS1_8StringEqESaISt4pairIKS9_SD_EEED2Ev.exit unwind label %8

8:                                                ; preds = %6
  %9 = landingpad { ptr, i32 }
          catch ptr null
  %10 = extractvalue { ptr, i32 } %9, 0
  tail call void @__clang_call_terminate(ptr %10) #36
  unreachable

_ZN4absl12lts_2024072218container_internal12raw_hash_setINS1_17FlatHashMapPolicyINSt7__cxx1112basic_stringIcSt11char_traitsIcESaIcEEEPN9grpc_core23GrpcXdsTransportFactory16GrpcXdsTransportEEENS1_10StringHashENS1_8StringEqESaISt4pairIKS9_SD_EEED2Ev.exit: ; preds = %6
  %11 = getelementptr inbounds nuw i8, ptr %0, i64 16
  tail call void @_ZN9grpc_core11ChannelArgsD1Ev(ptr noundef nonnull align 8 dereferenceable(8) %11) #37
  ret void

12:                                               ; preds = %4, %1
  %13 = landingpad { ptr, i32 }
          catch ptr null
  %14 = extractvalue { ptr, i32 } %13, 0
  tail call void @__clang_call_terminate(ptr %14) #36
  unreachable
}